target datalayout = "e-m:e-p270:32:32-p271:32:32-p272:64:64-i64:64-i128:128-f80:128-n8:16:32:64-S128"
target triple = "x86_64-pc-linux-gnu"

%struct._object = type { %union.anon, ptr }
%union.anon = type { i64 }
%struct.PyGC_Head = type { i64, i64 }
%struct.anon = type { i32, i32 }
%struct.memoryiterobject = type { %struct._object, i64, ptr, i64, ptr }

; Function Attrs: alwaysinline nounwind uwtable
define internal i32 @_Py_IsImmortal(ptr noundef %0) #4 {
  %2 = alloca ptr, align 8
  store ptr %0, ptr %2, align 8, !tbaa !4
  %3 = load ptr, ptr %2, align 8, !tbaa !4
  %4 = getelementptr inbounds nuw %struct._object, ptr %3, i32 0, i32 0
  %5 = getelementptr inbounds nuw %struct.anon, ptr %4, i32 0, i32 0
  %6 = load i32, ptr %5, align 8, !tbaa !29
  %7 = icmp slt i32 %6, 0
  %8 = zext i1 %7 to i32
  ret i32 %8
}

; Function Attrs: alwaysinline nounwind uwtable
define internal void @Py_DECREF(ptr noundef %0) #4 {
  %2 = alloca ptr, align 8
  store ptr %0, ptr %2, align 8, !tbaa !4
  %3 = load ptr, ptr %2, align 8, !tbaa !4
  %4 = call i32 @_Py_IsImmortal(ptr noundef %3)
  %5 = icmp ne i32 %4, 0
  br i1 %5, label %6, label %7

6:                                                ; preds = %1
  br label %16

7:                                                ; preds = %1
  %8 = load ptr, ptr %2, align 8, !tbaa !4
  %9 = getelementptr inbounds nuw %struct._object, ptr %8, i32 0, i32 0
  %10 = getelementptr inbounds nuw %struct.anon, ptr %9, i32 0, i32 0
  %11 = load i32, ptr %10, align 8, !tbaa !29
  %12 = add i32 %11, -1
  store i32 %12, ptr %10, align 8, !tbaa !29
  %13 = icmp eq i32 %12, 0
  br i1 %13, label %14, label %16

14:                                               ; preds = %7
  %15 = load ptr, ptr %2, align 8, !tbaa !4
  call void @_Py_Dealloc(ptr noundef %15)
  br label %16

16:                                               ; preds = %6, %14, %7
  ret void
}

; Function Attrs: inlinehint nounwind uwtable
define internal void @_PyGCHead_SET_PREV(ptr noundef %0, ptr noundef %1) #3 {
  %3 = alloca ptr, align 8
  %4 = alloca ptr, align 8
  %5 = alloca i64, align 8
  store ptr %0, ptr %3, align 8, !tbaa !9
  store ptr %1, ptr %4, align 8, !tbaa !9
  call void @llvm.lifetime.start.p0(i64 8, ptr %5) #9
  %6 = load ptr, ptr %4, align 8, !tbaa !9
  %7 = ptrtoint ptr %6 to i64
  store i64 %7, ptr %5, align 8, !tbaa !23
  %8 = load ptr, ptr %3, align 8, !tbaa !9
  %9 = getelementptr inbounds nuw %struct.PyGC_Head, ptr %8, i32 0, i32 1
  %10 = load i64, ptr %9, align 8, !tbaa !75
  %11 = and i64 %10, 3
  %12 = load i64, ptr %5, align 8, !tbaa !23
  %13 = or i64 %11, %12
  %14 = load ptr, ptr %3, align 8, !tbaa !9
  %15 = getelementptr inbounds nuw %struct.PyGC_Head, ptr %14, i32 0, i32 1
  store i64 %13, ptr %15, align 8, !tbaa !75
  call void @llvm.lifetime.end.p0(i64 8, ptr %5) #9
  ret void
}

; Function Attrs: inlinehint nounwind uwtable
define internal void @_PyGCHead_SET_NEXT(ptr noundef %0, ptr noundef %1) #3 {
  %3 = alloca ptr, align 8
  %4 = alloca ptr, align 8
  %5 = alloca i64, align 8
  store ptr %0, ptr %3, align 8, !tbaa !9
  store ptr %1, ptr %4, align 8, !tbaa !9
  call void @llvm.lifetime.start.p0(i64 8, ptr %5) #9
  %6 = load ptr, ptr %4, align 8, !tbaa !9
  %7 = ptrtoint ptr %6 to i64
  store i64 %7, ptr %5, align 8, !tbaa !23
  %8 = load ptr, ptr %3, align 8, !tbaa !9
  %9 = getelementptr inbounds nuw %struct.PyGC_Head, ptr %8, i32 0, i32 0
  %10 = load i64, ptr %9, align 8, !tbaa !73
  %11 = and i64 %10, 3
  %12 = load i64, ptr %5, align 8, !tbaa !23
  %13 = or i64 %11, %12
  %14 = load ptr, ptr %3, align 8, !tbaa !9
  %15 = getelementptr inbounds nuw %struct.PyGC_Head, ptr %14, i32 0, i32 0
  store i64 %13, ptr %15, align 8, !tbaa !73
  call void @llvm.lifetime.end.p0(i64 8, ptr %5) #9
  ret void
}

; Function Attrs: inlinehint nounwind uwtable
define internal ptr @_PyGCHead_NEXT(ptr noundef %0) #3 {
  %2 = alloca ptr, align 8
  %3 = alloca i64, align 8
  store ptr %0, ptr %2, align 8, !tbaa !9
  call void @llvm.lifetime.start.p0(i64 8, ptr %3) #9
  %4 = load ptr, ptr %2, align 8, !tbaa !9
  %5 = getelementptr inbounds nuw %struct.PyGC_Head, ptr %4, i32 0, i32 0
  %6 = load i64, ptr %5, align 8, !tbaa !73
  %7 = and i64 %6, -4
  store i64 %7, ptr %3, align 8, !tbaa !23
  %8 = load i64, ptr %3, align 8, !tbaa !23
  %9 = inttoptr i64 %8 to ptr
  call void @llvm.lifetime.end.p0(i64 8, ptr %3) #9
  ret ptr %9
}

; Function Attrs: inlinehint nounwind uwtable
define internal ptr @_PyGCHead_PREV(ptr noundef %0) #3 {
  %2 = alloca ptr, align 8
  %3 = alloca i64, align 8
  store ptr %0, ptr %2, align 8, !tbaa !9
  call void @llvm.lifetime.start.p0(i64 8, ptr %3) #9
  %4 = load ptr, ptr %2, align 8, !tbaa !9
  %5 = getelementptr inbounds nuw %struct.PyGC_Head, ptr %4, i32 0, i32 1
  %6 = load i64, ptr %5, align 8, !tbaa !75
  %7 = and i64 %6, -4
  store i64 %7, ptr %3, align 8, !tbaa !23
  %8 = load i64, ptr %3, align 8, !tbaa !23
  %9 = inttoptr i64 %8 to ptr
  call void @llvm.lifetime.end.p0(i64 8, ptr %3) #9
  ret ptr %9
}

; Function Attrs: inlinehint nounwind uwtable
define internal ptr @_Py_AS_GC(ptr noundef %0) #3 {
  %2 = alloca ptr, align 8
  %3 = alloca ptr, align 8
  store ptr %0, ptr %2, align 8, !tbaa !4
  call void @llvm.lifetime.start.p0(i64 8, ptr %3) #9
  %4 = load ptr, ptr %2, align 8, !tbaa !4
  %5 = getelementptr i8, ptr %4, i64 -16
  store ptr %5, ptr %3, align 8, !tbaa !22
  %6 = load ptr, ptr %3, align 8, !tbaa !22
  call void @llvm.lifetime.end.p0(i64 8, ptr %3) #9
  ret ptr %6
}

; Function Attrs: inlinehint nounwind uwtable
define internal void @Py_XDECREF(ptr noundef %0) #3 {
  %2 = alloca ptr, align 8
  store ptr %0, ptr %2, align 8, !tbaa !4
  %3 = load ptr, ptr %2, align 8, !tbaa !4
  %4 = icmp ne ptr %3, null
  br i1 %4, label %5, label %7

5:                                                ; preds = %1
  %6 = load ptr, ptr %2, align 8, !tbaa !4
  call void @Py_DECREF(ptr noundef %6)
  br label %7

7:                                                ; preds = %5, %1
  ret void
}

; Function Attrs: inlinehint nounwind uwtable
define internal void @_PyObject_GC_UNTRACK(ptr noundef %0) #3 {
  %2 = alloca ptr, align 8
  %3 = alloca ptr, align 8
  %4 = alloca ptr, align 8
  %5 = alloca ptr, align 8
  store ptr %0, ptr %2, align 8, !tbaa !4
  call void @llvm.lifetime.start.p0(i64 8, ptr %3) #9
  %6 = load ptr, ptr %2, align 8, !tbaa !4
  %7 = call ptr @_Py_AS_GC(ptr noundef %6)
  store ptr %7, ptr %3, align 8, !tbaa !9
  call void @llvm.lifetime.start.p0(i64 8, ptr %4) #9
  %8 = load ptr, ptr %3, align 8, !tbaa !9
  %9 = call ptr @_PyGCHead_PREV(ptr noundef %8)
  store ptr %9, ptr %4, align 8, !tbaa !9
  call void @llvm.lifetime.start.p0(i64 8, ptr %5) #9
  %10 = load ptr, ptr %3, align 8, !tbaa !9
  %11 = call ptr @_PyGCHead_NEXT(ptr noundef %10)
  store ptr %11, ptr %5, align 8, !tbaa !9
  %12 = load ptr, ptr %4, align 8, !tbaa !9
  %13 = load ptr, ptr %5, align 8, !tbaa !9
  call void @_PyGCHead_SET_NEXT(ptr noundef %12, ptr noundef %13)
  %14 = load ptr, ptr %5, align 8, !tbaa !9
  %15 = load ptr, ptr %4, align 8, !tbaa !9
  call void @_PyGCHead_SET_PREV(ptr noundef %14, ptr noundef %15)
  %16 = load ptr, ptr %3, align 8, !tbaa !9
  %17 = getelementptr inbounds nuw %struct.PyGC_Head, ptr %16, i32 0, i32 0
  store i64 0, ptr %17, align 8, !tbaa !73
  %18 = load ptr, ptr %3, align 8, !tbaa !9
  %19 = getelementptr inbounds nuw %struct.PyGC_Head, ptr %18, i32 0, i32 1
  %20 = load i64, ptr %19, align 8, !tbaa !75
  %21 = and i64 %20, 1
  store i64 %21, ptr %19, align 8, !tbaa !75
  call void @llvm.lifetime.end.p0(i64 8, ptr %5) #9
  call void @llvm.lifetime.end.p0(i64 8, ptr %4) #9
  call void @llvm.lifetime.end.p0(i64 8, ptr %3) #9
  ret void
}

; Function Attrs: nounwind uwtable
define internal void @memoryiter_dealloc(ptr noundef %0) #0 {
  %2 = alloca ptr, align 8
  %3 = alloca ptr, align 8
  store ptr %0, ptr %2, align 8, !tbaa !4
  call void @llvm.lifetime.start.p0(i64 8, ptr %3) #9
  %4 = load ptr, ptr %2, align 8, !tbaa !4
  store ptr %4, ptr %3, align 8, !tbaa !9
  %5 = load ptr, ptr %3, align 8, !tbaa !9
  call void @_PyObject_GC_UNTRACK(ptr noundef %5)
  %6 = load ptr, ptr %3, align 8, !tbaa !9
  %7 = getelementptr inbounds nuw %struct.memoryiterobject, ptr %6, i32 0, i32 2
  %8 = load ptr, ptr %7, align 8, !tbaa !59
  call void @Py_XDECREF(ptr noundef %8)
  %9 = load ptr, ptr %3, align 8, !tbaa !9
  call void @PyObject_GC_Del(ptr noundef %9)
  call void @llvm.lifetime.end.p0(i64 8, ptr %3) #9
  ret void
}