; Function Attrs: nounwind uwtable
define internal void @memoryiter_dealloc(ptr noundef %0) #0 {
  %2 = getelementptr i8, ptr %0, i64 -16
  %3 = getelementptr i8, ptr %0, i64 -8
  %.val.i = load i64, ptr %3, align 8, !tbaa !17
  %4 = and i64 %.val.i, -4
  %5 = inttoptr i64 %4 to ptr
  %.val9.i = load i64, ptr %2, align 8, !tbaa !19
  %6 = and i64 %.val9.i, -4
  %7 = inttoptr i64 %6 to ptr
  %8 = load i64, ptr %5, align 8, !tbaa !19
  %9 = and i64 %8, 3
  %10 = or disjoint i64 %9, %6
  store i64 %10, ptr %5, align 8, !tbaa !19
  %11 = getelementptr inbounds nuw i8, ptr %7, i64 8
  %12 = load i64, ptr %11, align 8, !tbaa !17
  %13 = and i64 %12, 3
  %14 = or disjoint i64 %13, %4
  store i64 %14, ptr %11, align 8, !tbaa !17
  store i64 0, ptr %2, align 8, !tbaa !19
  %15 = load i64, ptr %3, align 8, !tbaa !17
  %16 = and i64 %15, 1
  store i64 %16, ptr %3, align 8, !tbaa !17
  %17 = getelementptr inbounds nuw i8, ptr %0, i64 24
  %18 = load ptr, ptr %17, align 8, !tbaa !151
  %.not.i = icmp eq ptr %18, null
  br i1 %.not.i, label %Py_XDECREF.exit, label %19

19:                                               ; preds = %1
  %20 = load i32, ptr %18, align 8, !tbaa !102
  %.not.i.i = icmp sgt i32 %20, -1
  br i1 %.not.i.i, label %21, label %Py_XDECREF.exit

21:                                               ; preds = %19
  %22 = add nsw i32 %20, -1
  store i32 %22, ptr %18, align 8, !tbaa !102
  %23 = icmp eq i32 %22, 0
  br i1 %23, label %24, label %Py_XDECREF.exit

24:                                               ; preds = %21
  tail call void @_Py_Dealloc(ptr noundef nonnull %18) #14
  br label %Py_XDECREF.exit

Py_XDECREF.exit:                                  ; preds = %1, %19, %21, %24
  tail call void @PyObject_GC_Del(ptr noundef nonnull %0) #14
  ret void
}